(dp0
S'<pad>'
p1
I0
sV!
p2
I2
sV"
p3
I3
sV'
p4
I4
sV&
p5
I5
sV)
p6
I6
sV(
p7
I7
sV+
p8
I8
sV-
p9
I9
sV,
p10
I10
sV/
p11
I11
sV.
p12
I12
sV1
p13
I13
sV3
p14
I14
sV2
p15
I15
sV4
p16
I16
sV;
p17
I17
sV:
p18
I18
sV?
p19
I19
sV@
p20
I20
sV[
p21
I21
sV]
p22
I22
sVa
p23
I23
sV`
p24
I24
sVc
p25
I25
sVb
p26
I26
sVe
p27
I27
sVd
p28
I28
sVg
p29
I29
sVf
p30
I30
sVi
p31
I31
sVh
p32
I32
sVk
p33
I33
sVj
p34
I34
sVm
p35
I35
sVl
p36
I36
sVo
p37
I37
sVn
p38
I38
sVq
p39
I39
sVp
p40
I40
sVs
p41
I41
sVr
p42
I42
sVu
p43
I43
sVt
p44
I44
sVw
p45
I45
sVv
p46
I46
sVy
p47
I47
sVx
p48
I48
sVz
p49
I49
sS'<unk>'
p50
I1
s.